; Function Attrs: nounwind uwtable
define internal void @strbuf_addf_ret(ptr noundef %0, i32 %1, ptr noundef %2, ...) unnamed_addr #0 {
  %4 = alloca [1 x %struct.__va_list_tag], align 16
  call void @llvm.lifetime.start.p0(i64 24, ptr nonnull %4) #23
  call void @llvm.va_start.p0(ptr nonnull %4)
  call void @strbuf_vaddf(ptr noundef %0, ptr noundef %2, ptr noundef nonnull %4) #23
  call void @llvm.va_end.p0(ptr nonnull %4)
  call void @llvm.lifetime.end.p0(i64 24, ptr nonnull %4) #23
  ret void
}